target datalayout = "e-m:e-p270:32:32-p271:32:32-p272:64:64-i64:64-i128:128-f80:128-n8:16:32:64-S128"
target triple = "x86_64-pc-linux-gnu"

%struct.lxb_html_tree = type { ptr, ptr, ptr, ptr, ptr, ptr, ptr, %struct.lxb_html_tree_pending_table_t, ptr, i8, i8, i8, i8, i8, i8, ptr, ptr, ptr, i32, i64 }
%struct.lxb_html_tree_pending_table_t = type { ptr, i8 }
%struct.lexbor_array_t = type { ptr, i64, i64 }

; Function Attrs: nounwind uwtable
define hidden zeroext i1 @lxb_html_tree_active_formatting_find_by_node_reverse(ptr noundef %0, ptr noundef %1, ptr noundef %2) #0 {
  %4 = alloca i1, align 1
  %5 = alloca ptr, align 8
  %6 = alloca ptr, align 8
  %7 = alloca ptr, align 8
  %8 = alloca ptr, align 8
  %9 = alloca i64, align 8
  %10 = alloca i32, align 4
  store ptr %0, ptr %5, align 8, !tbaa !4
  store ptr %1, ptr %6, align 8, !tbaa !23
  store ptr %2, ptr %7, align 8, !tbaa !25
  call void @llvm.lifetime.start.p0(i64 8, ptr %8) #6
  %11 = load ptr, ptr %5, align 8, !tbaa !4
  %12 = getelementptr inbounds nuw %struct.lxb_html_tree, ptr %11, i32 0, i32 5
  %13 = load ptr, ptr %12, align 8, !tbaa !9
  %14 = getelementptr inbounds nuw %struct.lexbor_array_t, ptr %13, i32 0, i32 0
  %15 = load ptr, ptr %14, align 8, !tbaa !19
  store ptr %15, ptr %8, align 8, !tbaa !21
  call void @llvm.lifetime.start.p0(i64 8, ptr %9) #6
  %16 = load ptr, ptr %5, align 8, !tbaa !4
  %17 = getelementptr inbounds nuw %struct.lxb_html_tree, ptr %16, i32 0, i32 5
  %18 = load ptr, ptr %17, align 8, !tbaa !9
  %19 = getelementptr inbounds nuw %struct.lexbor_array_t, ptr %18, i32 0, i32 2
  %20 = load i64, ptr %19, align 8, !tbaa !22
  store i64 %20, ptr %9, align 8, !tbaa !24
  br label %21

21:                                               ; preds = %40, %3
  %22 = load i64, ptr %9, align 8, !tbaa !24
  %23 = icmp ne i64 %22, 0
  br i1 %23, label %24, label %41

24:                                               ; preds = %21
  %25 = load i64, ptr %9, align 8, !tbaa !24
  %26 = add i64 %25, -1
  store i64 %26, ptr %9, align 8, !tbaa !24
  %27 = load ptr, ptr %8, align 8, !tbaa !21
  %28 = load i64, ptr %9, align 8, !tbaa !24
  %29 = getelementptr inbounds nuw ptr, ptr %27, i64 %28
  %30 = load ptr, ptr %29, align 8, !tbaa !21
  %31 = load ptr, ptr %6, align 8, !tbaa !23
  %32 = icmp eq ptr %30, %31
  br i1 %32, label %33, label %40

33:                                               ; preds = %24
  %34 = load ptr, ptr %7, align 8, !tbaa !25
  %35 = icmp ne ptr %34, null
  br i1 %35, label %36, label %39

36:                                               ; preds = %33
  %37 = load i64, ptr %9, align 8, !tbaa !24
  %38 = load ptr, ptr %7, align 8, !tbaa !25
  store i64 %37, ptr %38, align 8, !tbaa !24
  br label %39

39:                                               ; preds = %36, %33
  store i1 true, ptr %4, align 1
  store i32 1, ptr %10, align 4
  br label %47

40:                                               ; preds = %24
  br label %21

41:                                               ; preds = %21
  %42 = load ptr, ptr %7, align 8, !tbaa !25
  %43 = icmp ne ptr %42, null
  br i1 %43, label %44, label %46

44:                                               ; preds = %41
  %45 = load ptr, ptr %7, align 8, !tbaa !25
  store i64 0, ptr %45, align 8, !tbaa !24
  br label %46

46:                                               ; preds = %44, %41
  store i1 false, ptr %4, align 1
  store i32 1, ptr %10, align 4
  br label %47

47:                                               ; preds = %46, %39
  call void @llvm.lifetime.end.p0(i64 8, ptr %9) #6
  call void @llvm.lifetime.end.p0(i64 8, ptr %8) #6
  %48 = load i1, ptr %4, align 1
  ret i1 %48
}