; Function Attrs: nofree norecurse nosync nounwind memory(read, argmem: readwrite, inaccessiblemem: none) uwtable
define hidden noundef zeroext i1 @lxb_html_tree_active_formatting_find_by_node_reverse(ptr noundef readonly captures(none) %0, ptr noundef readnone captures(address) %1, ptr noundef writeonly captures(address_is_null) %2) local_unnamed_addr #4 {
  %4 = getelementptr inbounds nuw i8, ptr %0, i64 40
  %5 = load ptr, ptr %4, align 8, !tbaa !4
  %6 = load ptr, ptr %5, align 8, !tbaa !17
  %7 = getelementptr inbounds nuw i8, ptr %5, i64 16
  %8 = load i64, ptr %7, align 8, !tbaa !19
  br label %9

9:                                                ; preds = %10, %3
  %.0 = phi i64 [ %8, %3 ], [ %11, %10 ]
  %.not.not.not.not.not.not = icmp ne i64 %.0, 0
  br i1 %.not.not.not.not.not.not, label %10, label %16

10:                                               ; preds = %9
  %11 = add i64 %.0, -1
  %12 = getelementptr inbounds nuw ptr, ptr %6, i64 %11
  %13 = load ptr, ptr %12, align 8, !tbaa !20
  %14 = icmp eq ptr %13, %1
  br i1 %14, label %15, label %9

15:                                               ; preds = %10
  %.not15 = icmp eq ptr %2, null
  br i1 %.not15, label %17, label %.sink.split

16:                                               ; preds = %9
  %.not14 = icmp eq ptr %2, null
  br i1 %.not14, label %17, label %.sink.split

.sink.split:                                      ; preds = %16, %15
  %.sink = phi i64 [ %11, %15 ], [ 0, %16 ]
  store i64 %.sink, ptr %2, align 8, !tbaa !21
  br label %17

17:                                               ; preds = %.sink.split, %16, %15
  %.not.not.not21 = phi i1 [ false, %16 ], [ true, %15 ], [ %.not.not.not.not.not.not, %.sink.split ]
  ret i1 %.not.not.not21
}